; Function Attrs: nounwind uwtable
define noundef i32 @bufferevent_set_max_single_write(ptr noundef captures(none) initializes((464, 472)) %0, i64 noundef %1) local_unnamed_addr #3 {
  %3 = getelementptr inbounds nuw i8, ptr %0, i64 448
  %4 = load ptr, ptr %3, align 8
  %.not = icmp eq ptr %4, null
  br i1 %.not, label %8, label %5

5:                                                ; preds = %2
  %6 = load ptr, ptr getelementptr inbounds nuw (i8, ptr @evthread_lock_fns_, i64 24), align 8
  %7 = tail call i32 %6(i32 noundef 0, ptr noundef nonnull %4) #10
  br label %8

8:                                                ; preds = %5, %2
  %or.cond = icmp slt i64 %1, 1
  %spec.select = select i1 %or.cond, i64 16384, i64 %1
  %9 = getelementptr inbounds nuw i8, ptr %0, i64 464
  store i64 %spec.select, ptr %9, align 8
  %10 = load ptr, ptr %3, align 8
  %.not14 = icmp eq ptr %10, null
  br i1 %.not14, label %14, label %11

11:                                               ; preds = %8
  %12 = load ptr, ptr getelementptr inbounds nuw (i8, ptr @evthread_lock_fns_, i64 32), align 8
  %13 = tail call i32 %12(i32 noundef 0, ptr noundef nonnull %10) #10
  br label %14

14:                                               ; preds = %11, %8
  ret i32 0
}